target datalayout = "e-m:e-p270:32:32-p271:32:32-p272:64:64-i64:64-i128:128-f80:128-n8:16:32:64-S128"
target triple = "x86_64-pc-linux-gnu"

%struct.bignum_st = type { ptr, i32, i32, i32, i32 }

; Function Attrs: nounwind uwtable
define i32 @bn_lshift_fixed_top(ptr noundef %0, ptr noundef %1, i32 noundef %2) #0 {
  %4 = alloca i32, align 4
  %5 = alloca ptr, align 8
  %6 = alloca ptr, align 8
  %7 = alloca i32, align 4
  %8 = alloca i32, align 4
  %9 = alloca i32, align 4
  %10 = alloca i32, align 4
  %11 = alloca i32, align 4
  %12 = alloca ptr, align 8
  %13 = alloca ptr, align 8
  %14 = alloca i64, align 8
  %15 = alloca i64, align 8
  %16 = alloca i64, align 8
  %17 = alloca i32, align 4
  store ptr %0, ptr %5, align 8, !tbaa !3
  store ptr %1, ptr %6, align 8, !tbaa !3
  store i32 %2, ptr %7, align 4, !tbaa !17
  call void @llvm.lifetime.start.p0(i64 4, ptr %8) #4
  call void @llvm.lifetime.start.p0(i64 4, ptr %9) #4
  call void @llvm.lifetime.start.p0(i64 4, ptr %10) #4
  call void @llvm.lifetime.start.p0(i64 4, ptr %11) #4
  call void @llvm.lifetime.start.p0(i64 8, ptr %12) #4
  call void @llvm.lifetime.start.p0(i64 8, ptr %13) #4
  call void @llvm.lifetime.start.p0(i64 8, ptr %14) #4
  call void @llvm.lifetime.start.p0(i64 8, ptr %15) #4
  call void @llvm.lifetime.start.p0(i64 8, ptr %16) #4
  store i64 0, ptr %16, align 8, !tbaa !15
  %18 = load i32, ptr %7, align 4, !tbaa !17
  %19 = sdiv i32 %18, 64
  store i32 %19, ptr %9, align 4, !tbaa !17
  %20 = load ptr, ptr %5, align 8, !tbaa !3
  %21 = load ptr, ptr %6, align 8, !tbaa !3
  %22 = getelementptr inbounds nuw %struct.bignum_st, ptr %21, i32 0, i32 1
  %23 = load i32, ptr %22, align 8, !tbaa !12
  %24 = load i32, ptr %9, align 4, !tbaa !17
  %25 = add nsw i32 %23, %24
  %26 = add nsw i32 %25, 1
  %27 = call ptr @bn_wexpand(ptr noundef %20, i32 noundef %26)
  %28 = icmp eq ptr %27, null
  br i1 %28, label %29, label %30

29:                                               ; preds = %3
  store i32 0, ptr %4, align 4
  store i32 1, ptr %17, align 4
  br label %156

30:                                               ; preds = %3
  %31 = load ptr, ptr %6, align 8, !tbaa !3
  %32 = getelementptr inbounds nuw %struct.bignum_st, ptr %31, i32 0, i32 1
  %33 = load i32, ptr %32, align 8, !tbaa !12
  %34 = icmp ne i32 %33, 0
  br i1 %34, label %35, label %121

35:                                               ; preds = %30
  %36 = load i32, ptr %7, align 4, !tbaa !17
  %37 = urem i32 %36, 64
  store i32 %37, ptr %10, align 4, !tbaa !17
  %38 = load i32, ptr %10, align 4, !tbaa !17
  %39 = sub i32 64, %38
  store i32 %39, ptr %11, align 4, !tbaa !17
  %40 = load i32, ptr %11, align 4, !tbaa !17
  %41 = urem i32 %40, 64
  store i32 %41, ptr %11, align 4, !tbaa !17
  %42 = load i32, ptr %11, align 4, !tbaa !17
  %43 = zext i32 %42 to i64
  %44 = sub i64 0, %43
  store i64 %44, ptr %16, align 8, !tbaa !15
  %45 = load i64, ptr %16, align 8, !tbaa !15
  %46 = lshr i64 %45, 8
  %47 = load i64, ptr %16, align 8, !tbaa !15
  %48 = or i64 %47, %46
  store i64 %48, ptr %16, align 8, !tbaa !15
  %49 = load ptr, ptr %6, align 8, !tbaa !3
  %50 = getelementptr inbounds nuw %struct.bignum_st, ptr %49, i32 0, i32 0
  %51 = load ptr, ptr %50, align 8, !tbaa !13
  %52 = getelementptr inbounds i64, ptr %51, i64 0
  store ptr %52, ptr %13, align 8, !tbaa !14
  %53 = load ptr, ptr %5, align 8, !tbaa !3
  %54 = getelementptr inbounds nuw %struct.bignum_st, ptr %53, i32 0, i32 0
  %55 = load ptr, ptr %54, align 8, !tbaa !13
  %56 = load i32, ptr %9, align 4, !tbaa !17
  %57 = sext i32 %56 to i64
  %58 = getelementptr inbounds i64, ptr %55, i64 %57
  store ptr %58, ptr %12, align 8, !tbaa !14
  %59 = load ptr, ptr %13, align 8, !tbaa !14
  %60 = load ptr, ptr %6, align 8, !tbaa !3
  %61 = getelementptr inbounds nuw %struct.bignum_st, ptr %60, i32 0, i32 1
  %62 = load i32, ptr %61, align 8, !tbaa !12
  %63 = sub nsw i32 %62, 1
  %64 = sext i32 %63 to i64
  %65 = getelementptr inbounds i64, ptr %59, i64 %64
  %66 = load i64, ptr %65, align 8, !tbaa !15
  store i64 %66, ptr %14, align 8, !tbaa !15
  %67 = load i64, ptr %14, align 8, !tbaa !15
  %68 = load i32, ptr %11, align 4, !tbaa !17
  %69 = zext i32 %68 to i64
  %70 = lshr i64 %67, %69
  %71 = load i64, ptr %16, align 8, !tbaa !15
  %72 = and i64 %70, %71
  %73 = load ptr, ptr %12, align 8, !tbaa !14
  %74 = load ptr, ptr %6, align 8, !tbaa !3
  %75 = getelementptr inbounds nuw %struct.bignum_st, ptr %74, i32 0, i32 1
  %76 = load i32, ptr %75, align 8, !tbaa !12
  %77 = sext i32 %76 to i64
  %78 = getelementptr inbounds i64, ptr %73, i64 %77
  store i64 %72, ptr %78, align 8, !tbaa !15
  %79 = load ptr, ptr %6, align 8, !tbaa !3
  %80 = getelementptr inbounds nuw %struct.bignum_st, ptr %79, i32 0, i32 1
  %81 = load i32, ptr %80, align 8, !tbaa !12
  %82 = sub nsw i32 %81, 1
  store i32 %82, ptr %8, align 4, !tbaa !17
  br label %83

83:                                               ; preds = %110, %35
  %84 = load i32, ptr %8, align 4, !tbaa !17
  %85 = icmp sgt i32 %84, 0
  br i1 %85, label %86, label %113

86:                                               ; preds = %83
  %87 = load i64, ptr %14, align 8, !tbaa !15
  %88 = load i32, ptr %10, align 4, !tbaa !17
  %89 = zext i32 %88 to i64
  %90 = shl i64 %87, %89
  store i64 %90, ptr %15, align 8, !tbaa !15
  %91 = load ptr, ptr %13, align 8, !tbaa !14
  %92 = load i32, ptr %8, align 4, !tbaa !17
  %93 = sub nsw i32 %92, 1
  %94 = sext i32 %93 to i64
  %95 = getelementptr inbounds i64, ptr %91, i64 %94
  %96 = load i64, ptr %95, align 8, !tbaa !15
  store i64 %96, ptr %14, align 8, !tbaa !15
  %97 = load i64, ptr %15, align 8, !tbaa !15
  %98 = load i64, ptr %14, align 8, !tbaa !15
  %99 = load i32, ptr %11, align 4, !tbaa !17
  %100 = zext i32 %99 to i64
  %101 = lshr i64 %98, %100
  %102 = load i64, ptr %16, align 8, !tbaa !15
  %103 = and i64 %101, %102
  %104 = or i64 %97, %103
  %105 = and i64 %104, -1
  %106 = load ptr, ptr %12, align 8, !tbaa !14
  %107 = load i32, ptr %8, align 4, !tbaa !17
  %108 = sext i32 %107 to i64
  %109 = getelementptr inbounds i64, ptr %106, i64 %108
  store i64 %105, ptr %109, align 8, !tbaa !15
  br label %110

110:                                              ; preds = %86
  %111 = load i32, ptr %8, align 4, !tbaa !17
  %112 = add nsw i32 %111, -1
  store i32 %112, ptr %8, align 4, !tbaa !17
  br label %83, !llvm.loop !21

113:                                              ; preds = %83
  %114 = load i64, ptr %14, align 8, !tbaa !15
  %115 = load i32, ptr %10, align 4, !tbaa !17
  %116 = zext i32 %115 to i64
  %117 = shl i64 %114, %116
  %118 = and i64 %117, -1
  %119 = load ptr, ptr %12, align 8, !tbaa !14
  %120 = getelementptr inbounds i64, ptr %119, i64 0
  store i64 %118, ptr %120, align 8, !tbaa !15
  br label %128

121:                                              ; preds = %30
  %122 = load ptr, ptr %5, align 8, !tbaa !3
  %123 = getelementptr inbounds nuw %struct.bignum_st, ptr %122, i32 0, i32 0
  %124 = load ptr, ptr %123, align 8, !tbaa !13
  %125 = load i32, ptr %9, align 4, !tbaa !17
  %126 = sext i32 %125 to i64
  %127 = getelementptr inbounds i64, ptr %124, i64 %126
  store i64 0, ptr %127, align 8, !tbaa !15
  br label %128

128:                                              ; preds = %121, %113
  %129 = load i32, ptr %9, align 4, !tbaa !17
  %130 = icmp ne i32 %129, 0
  br i1 %130, label %131, label %138

131:                                              ; preds = %128
  %132 = load ptr, ptr %5, align 8, !tbaa !3
  %133 = getelementptr inbounds nuw %struct.bignum_st, ptr %132, i32 0, i32 0
  %134 = load ptr, ptr %133, align 8, !tbaa !13
  %135 = load i32, ptr %9, align 4, !tbaa !17
  %136 = sext i32 %135 to i64
  %137 = mul i64 8, %136
  call void @llvm.memset.p0.i64(ptr align 8 %134, i8 0, i64 %137, i1 false)
  br label %138

138:                                              ; preds = %131, %128
  %139 = load ptr, ptr %6, align 8, !tbaa !3
  %140 = getelementptr inbounds nuw %struct.bignum_st, ptr %139, i32 0, i32 3
  %141 = load i32, ptr %140, align 8, !tbaa !8
  %142 = load ptr, ptr %5, align 8, !tbaa !3
  %143 = getelementptr inbounds nuw %struct.bignum_st, ptr %142, i32 0, i32 3
  store i32 %141, ptr %143, align 8, !tbaa !8
  %144 = load ptr, ptr %6, align 8, !tbaa !3
  %145 = getelementptr inbounds nuw %struct.bignum_st, ptr %144, i32 0, i32 1
  %146 = load i32, ptr %145, align 8, !tbaa !12
  %147 = load i32, ptr %9, align 4, !tbaa !17
  %148 = add nsw i32 %146, %147
  %149 = add nsw i32 %148, 1
  %150 = load ptr, ptr %5, align 8, !tbaa !3
  %151 = getelementptr inbounds nuw %struct.bignum_st, ptr %150, i32 0, i32 1
  store i32 %149, ptr %151, align 8, !tbaa !12
  %152 = load ptr, ptr %5, align 8, !tbaa !3
  %153 = getelementptr inbounds nuw %struct.bignum_st, ptr %152, i32 0, i32 4
  %154 = load i32, ptr %153, align 4, !tbaa !22
  %155 = or i32 %154, 0
  store i32 %155, ptr %153, align 4, !tbaa !22
  store i32 1, ptr %4, align 4
  store i32 1, ptr %17, align 4
  br label %156

156:                                              ; preds = %138, %29
  call void @llvm.lifetime.end.p0(i64 8, ptr %16) #4
  call void @llvm.lifetime.end.p0(i64 8, ptr %15) #4
  call void @llvm.lifetime.end.p0(i64 8, ptr %14) #4
  call void @llvm.lifetime.end.p0(i64 8, ptr %13) #4
  call void @llvm.lifetime.end.p0(i64 8, ptr %12) #4
  call void @llvm.lifetime.end.p0(i64 4, ptr %11) #4
  call void @llvm.lifetime.end.p0(i64 4, ptr %10) #4
  call void @llvm.lifetime.end.p0(i64 4, ptr %9) #4
  call void @llvm.lifetime.end.p0(i64 4, ptr %8) #4
  %157 = load i32, ptr %4, align 4
  ret i32 %157
}