; Function Attrs: nounwind uwtable
define range(i32 0, 2) i32 @bn_lshift_fixed_top(ptr noundef %0, ptr noundef readonly captures(none) %1, i32 noundef %2) local_unnamed_addr #0 {
  %4 = sdiv i32 %2, 64
  %5 = getelementptr inbounds nuw i8, ptr %1, i64 8
  %6 = load i32, ptr %5, align 8, !tbaa !10
  %7 = add nsw i32 %4, 1
  %8 = add i32 %7, %6
  %9 = tail call ptr @bn_wexpand(ptr noundef %0, i32 noundef %8) #4
  %10 = icmp eq ptr %9, null
  br i1 %10, label %60, label %11

11:                                               ; preds = %3
  %12 = load i32, ptr %5, align 8, !tbaa !10
  %.not = icmp eq i32 %12, 0
  br i1 %.not, label %44, label %13

13:                                               ; preds = %11
  %14 = and i32 %2, 63
  %15 = sub i32 0, %2
  %16 = and i32 %15, 63
  %17 = zext nneg i32 %16 to i64
  %18 = sub nsw i64 0, %17
  %19 = lshr i64 %18, 8
  %20 = or i64 %19, %18
  %21 = load ptr, ptr %1, align 8, !tbaa !11
  %22 = load ptr, ptr %0, align 8, !tbaa !11
  %23 = sext i32 %4 to i64
  %24 = getelementptr inbounds i64, ptr %22, i64 %23
  %25 = sext i32 %12 to i64
  %26 = getelementptr i64, ptr %21, i64 %25
  %27 = getelementptr i8, ptr %26, i64 -8
  %28 = load i64, ptr %27, align 8, !tbaa !12
  %29 = lshr i64 %28, %17
  %30 = and i64 %29, %20
  %31 = getelementptr inbounds i64, ptr %24, i64 %25
  store i64 %30, ptr %31, align 8, !tbaa !12
  %invariant.gep = getelementptr i8, ptr %21, i64 -16
  %32 = icmp sgt i32 %12, 1
  %33 = zext nneg i32 %14 to i64
  br i1 %32, label %.lr.ph, label %._crit_edge

.lr.ph:                                           ; preds = %13
  %34 = zext nneg i32 %12 to i64
  br label %35

35:                                               ; preds = %.lr.ph, %35
  %indvars.iv = phi i64 [ %34, %.lr.ph ], [ %indvars.iv.next, %35 ]
  %.04854 = phi i64 [ %28, %.lr.ph ], [ %37, %35 ]
  %indvars.iv.next = add nsw i64 %indvars.iv, -1
  %36 = shl i64 %.04854, %33
  %gep = getelementptr i64, ptr %invariant.gep, i64 %indvars.iv
  %37 = load i64, ptr %gep, align 8, !tbaa !12
  %38 = lshr i64 %37, %17
  %39 = and i64 %38, %20
  %40 = or i64 %39, %36
  %41 = getelementptr inbounds nuw i64, ptr %24, i64 %indvars.iv.next
  store i64 %40, ptr %41, align 8, !tbaa !12
  %42 = icmp samesign ugt i64 %indvars.iv, 2
  br i1 %42, label %35, label %._crit_edge, !llvm.loop !17

._crit_edge:                                      ; preds = %35, %13
  %.048.lcssa = phi i64 [ %28, %13 ], [ %37, %35 ]
  %43 = shl i64 %.048.lcssa, %33
  store i64 %43, ptr %24, align 8, !tbaa !12
  br label %48

44:                                               ; preds = %11
  %45 = load ptr, ptr %0, align 8, !tbaa !11
  %46 = sext i32 %4 to i64
  %47 = getelementptr inbounds i64, ptr %45, i64 %46
  store i64 0, ptr %47, align 8, !tbaa !12
  br label %48

48:                                               ; preds = %44, %._crit_edge
  %49 = phi ptr [ %45, %44 ], [ %22, %._crit_edge ]
  %.off = add i32 %2, 63
  %.not52 = icmp ult i32 %.off, 127
  br i1 %.not52, label %53, label %50

50:                                               ; preds = %48
  %51 = sext i32 %4 to i64
  %52 = shl nsw i64 %51, 3
  tail call void @llvm.memset.p0.i64(ptr nonnull align 8 %49, i8 0, i64 %52, i1 false)
  %.pre = load i32, ptr %5, align 8, !tbaa !10
  br label %53

53:                                               ; preds = %50, %48
  %54 = phi i32 [ %.pre, %50 ], [ %12, %48 ]
  %55 = getelementptr inbounds nuw i8, ptr %1, i64 16
  %56 = load i32, ptr %55, align 8, !tbaa !3
  %57 = getelementptr inbounds nuw i8, ptr %0, i64 16
  store i32 %56, ptr %57, align 8, !tbaa !3
  %58 = add i32 %7, %54
  %59 = getelementptr inbounds nuw i8, ptr %0, i64 8
  store i32 %58, ptr %59, align 8, !tbaa !10
  br label %60

60:                                               ; preds = %3, %53
  %.0 = phi i32 [ 1, %53 ], [ 0, %3 ]
  ret i32 %.0
}